target datalayout = "e-m:e-p270:32:32-p271:32:32-p272:64:64-i64:64-i128:128-f80:128-n8:16:32:64-S128"
target triple = "x86_64-pc-linux-gnu"

%struct.Vec_Int_t_ = type { i32, i32, ptr }

; Function Attrs: inlinehint nounwind uwtable
define internal void @Vec_IntSort(ptr noundef %0, i32 noundef %1) #2 {
  %3 = alloca ptr, align 8
  %4 = alloca i32, align 4
  store ptr %0, ptr %3, align 8, !tbaa !12
  store i32 %1, ptr %4, align 4, !tbaa !10
  %5 = load i32, ptr %4, align 4, !tbaa !10
  %6 = icmp ne i32 %5, 0
  br i1 %6, label %7, label %15

7:                                                ; preds = %2
  %8 = load ptr, ptr %3, align 8, !tbaa !12
  %9 = getelementptr inbounds nuw %struct.Vec_Int_t_, ptr %8, i32 0, i32 2
  %10 = load ptr, ptr %9, align 8, !tbaa !18
  %11 = load ptr, ptr %3, align 8, !tbaa !12
  %12 = getelementptr inbounds nuw %struct.Vec_Int_t_, ptr %11, i32 0, i32 1
  %13 = load i32, ptr %12, align 4, !tbaa !14
  %14 = sext i32 %13 to i64
  call void @qsort(ptr noundef %10, i64 noundef %14, i64 noundef 4, ptr noundef @Vec_IntSortCompare2)
  br label %23

15:                                               ; preds = %2
  %16 = load ptr, ptr %3, align 8, !tbaa !12
  %17 = getelementptr inbounds nuw %struct.Vec_Int_t_, ptr %16, i32 0, i32 2
  %18 = load ptr, ptr %17, align 8, !tbaa !18
  %19 = load ptr, ptr %3, align 8, !tbaa !12
  %20 = getelementptr inbounds nuw %struct.Vec_Int_t_, ptr %19, i32 0, i32 1
  %21 = load i32, ptr %20, align 4, !tbaa !14
  %22 = sext i32 %21 to i64
  call void @qsort(ptr noundef %18, i64 noundef %22, i64 noundef 4, ptr noundef @Vec_IntSortCompare1)
  br label %23

23:                                               ; preds = %15, %7
  ret void
}

; Function Attrs: inlinehint nounwind uwtable
define internal ptr @Vec_IntAlloc(i32 noundef %0) #2 {
  %2 = alloca i32, align 4
  %3 = alloca ptr, align 8
  store i32 %0, ptr %2, align 4, !tbaa !10
  call void @llvm.lifetime.start.p0(i64 8, ptr %3) #14
  %4 = call noalias ptr @malloc(i64 noundef 16) #15
  store ptr %4, ptr %3, align 8, !tbaa !12
  %5 = load i32, ptr %2, align 4, !tbaa !10
  %6 = icmp sgt i32 %5, 0
  br i1 %6, label %7, label %11

7:                                                ; preds = %1
  %8 = load i32, ptr %2, align 4, !tbaa !10
  %9 = icmp slt i32 %8, 16
  br i1 %9, label %10, label %11

10:                                               ; preds = %7
  store i32 16, ptr %2, align 4, !tbaa !10
  br label %11

11:                                               ; preds = %10, %7, %1
  %12 = load ptr, ptr %3, align 8, !tbaa !12
  %13 = getelementptr inbounds nuw %struct.Vec_Int_t_, ptr %12, i32 0, i32 1
  store i32 0, ptr %13, align 4, !tbaa !14
  %14 = load i32, ptr %2, align 4, !tbaa !10
  %15 = load ptr, ptr %3, align 8, !tbaa !12
  %16 = getelementptr inbounds nuw %struct.Vec_Int_t_, ptr %15, i32 0, i32 0
  store i32 %14, ptr %16, align 8, !tbaa !17
  %17 = load ptr, ptr %3, align 8, !tbaa !12
  %18 = getelementptr inbounds nuw %struct.Vec_Int_t_, ptr %17, i32 0, i32 0
  %19 = load i32, ptr %18, align 8, !tbaa !17
  %20 = icmp ne i32 %19, 0
  br i1 %20, label %21, label %28

21:                                               ; preds = %11
  %22 = load ptr, ptr %3, align 8, !tbaa !12
  %23 = getelementptr inbounds nuw %struct.Vec_Int_t_, ptr %22, i32 0, i32 0
  %24 = load i32, ptr %23, align 8, !tbaa !17
  %25 = sext i32 %24 to i64
  %26 = mul i64 4, %25
  %27 = call noalias ptr @malloc(i64 noundef %26) #15
  br label %29

28:                                               ; preds = %11
  br label %29

29:                                               ; preds = %28, %21
  %30 = phi ptr [ %27, %21 ], [ null, %28 ]
  %31 = load ptr, ptr %3, align 8, !tbaa !12
  %32 = getelementptr inbounds nuw %struct.Vec_Int_t_, ptr %31, i32 0, i32 2
  store ptr %30, ptr %32, align 8, !tbaa !18
  %33 = load ptr, ptr %3, align 8, !tbaa !12
  call void @llvm.lifetime.end.p0(i64 8, ptr %3) #14
  ret ptr %33
}

; Function Attrs: inlinehint nounwind uwtable
define internal void @Vec_IntClear(ptr noundef %0) #2 {
  %2 = alloca ptr, align 8
  store ptr %0, ptr %2, align 8, !tbaa !12
  %3 = load ptr, ptr %2, align 8, !tbaa !12
  %4 = getelementptr inbounds nuw %struct.Vec_Int_t_, ptr %3, i32 0, i32 1
  store i32 0, ptr %4, align 4, !tbaa !14
  ret void
}

; Function Attrs: nounwind uwtable
define i32 @Gia_ManUnivTfo(ptr noundef %0, ptr noundef %1, i32 noundef %2, ptr noundef %3, ptr noundef %4) #0 {
  %6 = alloca ptr, align 8
  %7 = alloca ptr, align 8
  %8 = alloca i32, align 4
  %9 = alloca ptr, align 8
  %10 = alloca ptr, align 8
  %11 = alloca i32, align 4
  %12 = alloca i32, align 4
  store ptr %0, ptr %6, align 8, !tbaa !3
  store ptr %1, ptr %7, align 8, !tbaa !61
  store i32 %2, ptr %8, align 4, !tbaa !10
  store ptr %3, ptr %9, align 8, !tbaa !125
  store ptr %4, ptr %10, align 8, !tbaa !125
  call void @llvm.lifetime.start.p0(i64 4, ptr %11) #14
  call void @llvm.lifetime.start.p0(i64 4, ptr %12) #14
  store i32 0, ptr %12, align 4, !tbaa !10
  %13 = load ptr, ptr %9, align 8, !tbaa !125
  %14 = icmp ne ptr %13, null
  br i1 %14, label %15, label %26

15:                                               ; preds = %5
  %16 = load ptr, ptr %9, align 8, !tbaa !125
  %17 = load ptr, ptr %16, align 8, !tbaa !12
  %18 = icmp ne ptr %17, null
  br i1 %18, label %19, label %22

19:                                               ; preds = %15
  %20 = load ptr, ptr %9, align 8, !tbaa !125
  %21 = load ptr, ptr %20, align 8, !tbaa !12
  call void @Vec_IntClear(ptr noundef %21)
  br label %25

22:                                               ; preds = %15
  %23 = call ptr @Vec_IntAlloc(i32 noundef 100)
  %24 = load ptr, ptr %9, align 8, !tbaa !125
  store ptr %23, ptr %24, align 8, !tbaa !12
  br label %25

25:                                               ; preds = %22, %19
  br label %26

26:                                               ; preds = %25, %5
  %27 = load ptr, ptr %10, align 8, !tbaa !125
  %28 = icmp ne ptr %27, null
  br i1 %28, label %29, label %40

29:                                               ; preds = %26
  %30 = load ptr, ptr %10, align 8, !tbaa !125
  %31 = load ptr, ptr %30, align 8, !tbaa !12
  %32 = icmp ne ptr %31, null
  br i1 %32, label %33, label %36

33:                                               ; preds = %29
  %34 = load ptr, ptr %10, align 8, !tbaa !125
  %35 = load ptr, ptr %34, align 8, !tbaa !12
  call void @Vec_IntClear(ptr noundef %35)
  br label %39

36:                                               ; preds = %29
  %37 = call ptr @Vec_IntAlloc(i32 noundef 100)
  %38 = load ptr, ptr %10, align 8, !tbaa !125
  store ptr %37, ptr %38, align 8, !tbaa !12
  br label %39

39:                                               ; preds = %36, %33
  br label %40

40:                                               ; preds = %39, %26
  %41 = load ptr, ptr %6, align 8, !tbaa !3
  call void @Gia_ManIncrementTravId(ptr noundef %41)
  store i32 0, ptr %11, align 4, !tbaa !10
  br label %42

42:                                               ; preds = %72, %40
  %43 = load i32, ptr %11, align 4, !tbaa !10
  %44 = load i32, ptr %8, align 4, !tbaa !10
  %45 = icmp slt i32 %43, %44
  br i1 %45, label %46, label %75

46:                                               ; preds = %42
  %47 = load ptr, ptr %6, align 8, !tbaa !3
  %48 = load ptr, ptr %7, align 8, !tbaa !61
  %49 = load i32, ptr %11, align 4, !tbaa !10
  %50 = sext i32 %49 to i64
  %51 = getelementptr inbounds i32, ptr %48, i64 %50
  %52 = load i32, ptr %51, align 4, !tbaa !10
  %53 = load ptr, ptr %9, align 8, !tbaa !125
  %54 = icmp ne ptr %53, null
  br i1 %54, label %55, label %58

55:                                               ; preds = %46
  %56 = load ptr, ptr %9, align 8, !tbaa !125
  %57 = load ptr, ptr %56, align 8, !tbaa !12
  br label %59

58:                                               ; preds = %46
  br label %59

59:                                               ; preds = %58, %55
  %60 = phi ptr [ %57, %55 ], [ null, %58 ]
  %61 = load ptr, ptr %10, align 8, !tbaa !125
  %62 = icmp ne ptr %61, null
  br i1 %62, label %63, label %66

63:                                               ; preds = %59
  %64 = load ptr, ptr %10, align 8, !tbaa !125
  %65 = load ptr, ptr %64, align 8, !tbaa !12
  br label %67

66:                                               ; preds = %59
  br label %67

67:                                               ; preds = %66, %63
  %68 = phi ptr [ %65, %63 ], [ null, %66 ]
  %69 = call i32 @Gia_ManUnivTfo_rec(ptr noundef %47, i32 noundef %52, ptr noundef %60, ptr noundef %68)
  %70 = load i32, ptr %12, align 4, !tbaa !10
  %71 = add nsw i32 %70, %69
  store i32 %71, ptr %12, align 4, !tbaa !10
  br label %72

72:                                               ; preds = %67
  %73 = load i32, ptr %11, align 4, !tbaa !10
  %74 = add nsw i32 %73, 1
  store i32 %74, ptr %11, align 4, !tbaa !10
  br label %42, !llvm.loop !230

75:                                               ; preds = %42
  %76 = load ptr, ptr %9, align 8, !tbaa !125
  %77 = icmp ne ptr %76, null
  br i1 %77, label %78, label %81

78:                                               ; preds = %75
  %79 = load ptr, ptr %9, align 8, !tbaa !125
  %80 = load ptr, ptr %79, align 8, !tbaa !12
  call void @Vec_IntSort(ptr noundef %80, i32 noundef 0)
  br label %81

81:                                               ; preds = %78, %75
  %82 = load ptr, ptr %10, align 8, !tbaa !125
  %83 = icmp ne ptr %82, null
  br i1 %83, label %84, label %87

84:                                               ; preds = %81
  %85 = load ptr, ptr %10, align 8, !tbaa !125
  %86 = load ptr, ptr %85, align 8, !tbaa !12
  call void @Vec_IntSort(ptr noundef %86, i32 noundef 0)
  br label %87

87:                                               ; preds = %84, %81
  %88 = load i32, ptr %12, align 4, !tbaa !10
  call void @llvm.lifetime.end.p0(i64 4, ptr %12) #14
  call void @llvm.lifetime.end.p0(i64 4, ptr %11) #14
  ret i32 %88
}