; Function Attrs: nounwind uwtable
define i32 @Gia_ManUnivTfo(ptr noundef %0, ptr noundef readonly captures(none) %1, i32 noundef %2, ptr noundef %3, ptr noundef %4) local_unnamed_addr #0 {
  %.not = icmp eq ptr %3, null
  br i1 %.not, label %15, label %6

6:                                                ; preds = %5
  %7 = load ptr, ptr %3, align 8, !tbaa !69
  %.not31 = icmp eq ptr %7, null
  br i1 %.not31, label %10, label %8

8:                                                ; preds = %6
  %9 = getelementptr inbounds nuw i8, ptr %7, i64 4
  store i32 0, ptr %9, align 4, !tbaa !28
  br label %15

10:                                               ; preds = %6
  %11 = tail call noalias dereferenceable_or_null(16) ptr @malloc(i64 noundef 16) #31
  %12 = getelementptr inbounds nuw i8, ptr %11, i64 4
  store i32 0, ptr %12, align 4, !tbaa !28
  store i32 100, ptr %11, align 8, !tbaa !29
  %13 = tail call noalias dereferenceable_or_null(400) ptr @malloc(i64 noundef 400) #31
  %14 = getelementptr inbounds nuw i8, ptr %11, i64 8
  store ptr %13, ptr %14, align 8, !tbaa !30
  store ptr %11, ptr %3, align 8, !tbaa !69
  br label %15

15:                                               ; preds = %8, %10, %5
  %.not32 = icmp eq ptr %4, null
  br i1 %.not32, label %25, label %16

16:                                               ; preds = %15
  %17 = load ptr, ptr %4, align 8, !tbaa !69
  %.not33 = icmp eq ptr %17, null
  br i1 %.not33, label %20, label %18

18:                                               ; preds = %16
  %19 = getelementptr inbounds nuw i8, ptr %17, i64 4
  store i32 0, ptr %19, align 4, !tbaa !28
  br label %25

20:                                               ; preds = %16
  %21 = tail call noalias dereferenceable_or_null(16) ptr @malloc(i64 noundef 16) #31
  %22 = getelementptr inbounds nuw i8, ptr %21, i64 4
  store i32 0, ptr %22, align 4, !tbaa !28
  store i32 100, ptr %21, align 8, !tbaa !29
  %23 = tail call noalias dereferenceable_or_null(400) ptr @malloc(i64 noundef 400) #31
  %24 = getelementptr inbounds nuw i8, ptr %21, i64 8
  store ptr %23, ptr %24, align 8, !tbaa !30
  store ptr %21, ptr %4, align 8, !tbaa !69
  br label %25

25:                                               ; preds = %18, %20, %15
  tail call void @Gia_ManIncrementTravId(ptr noundef %0) #32
  %26 = icmp sgt i32 %2, 0
  br i1 %26, label %.lr.ph, label %._crit_edge

.lr.ph:                                           ; preds = %25
  %wide.trip.count64 = zext nneg i32 %2 to i64
  br i1 %.not, label %.lr.ph.split.us, label %.lr.ph.split

.lr.ph.split.us:                                  ; preds = %.lr.ph
  br i1 %.not32, label %.lr.ph.split.us.split.us, label %.lr.ph.split.us.split

.lr.ph.split.us.split.us:                         ; preds = %.lr.ph.split.us, %.lr.ph.split.us.split.us
  %indvars.iv61 = phi i64 [ %indvars.iv.next62, %.lr.ph.split.us.split.us ], [ 0, %.lr.ph.split.us ]
  %.038.us.us = phi i32 [ %30, %.lr.ph.split.us.split.us ], [ 0, %.lr.ph.split.us ]
  %27 = getelementptr inbounds nuw i32, ptr %1, i64 %indvars.iv61
  %28 = load i32, ptr %27, align 4, !tbaa !31
  %29 = tail call i32 @Gia_ManUnivTfo_rec(ptr noundef %0, i32 noundef %28, ptr noundef null, ptr noundef null)
  %30 = add nsw i32 %29, %.038.us.us
  %indvars.iv.next62 = add nuw nsw i64 %indvars.iv61, 1
  %exitcond65.not = icmp eq i64 %indvars.iv.next62, %wide.trip.count64
  br i1 %exitcond65.not, label %._crit_edge, label %.lr.ph.split.us.split.us, !llvm.loop !206

.lr.ph.split.us.split:                            ; preds = %.lr.ph.split.us, %.lr.ph.split.us.split
  %indvars.iv56 = phi i64 [ %indvars.iv.next57, %.lr.ph.split.us.split ], [ 0, %.lr.ph.split.us ]
  %.038.us = phi i32 [ %35, %.lr.ph.split.us.split ], [ 0, %.lr.ph.split.us ]
  %31 = getelementptr inbounds nuw i32, ptr %1, i64 %indvars.iv56
  %32 = load i32, ptr %31, align 4, !tbaa !31
  %33 = load ptr, ptr %4, align 8, !tbaa !69
  %34 = tail call i32 @Gia_ManUnivTfo_rec(ptr noundef %0, i32 noundef %32, ptr noundef null, ptr noundef %33)
  %35 = add nsw i32 %34, %.038.us
  %indvars.iv.next57 = add nuw nsw i64 %indvars.iv56, 1
  %exitcond60.not = icmp eq i64 %indvars.iv.next57, %wide.trip.count64
  br i1 %exitcond60.not, label %._crit_edge, label %.lr.ph.split.us.split, !llvm.loop !206

.lr.ph.split:                                     ; preds = %.lr.ph
  br i1 %.not32, label %.lr.ph.split.split.us, label %.lr.ph.split.split

.lr.ph.split.split.us:                            ; preds = %.lr.ph.split, %.lr.ph.split.split.us
  %indvars.iv51 = phi i64 [ %indvars.iv.next52, %.lr.ph.split.split.us ], [ 0, %.lr.ph.split ]
  %.038.us39 = phi i32 [ %40, %.lr.ph.split.split.us ], [ 0, %.lr.ph.split ]
  %36 = getelementptr inbounds nuw i32, ptr %1, i64 %indvars.iv51
  %37 = load i32, ptr %36, align 4, !tbaa !31
  %38 = load ptr, ptr %3, align 8, !tbaa !69
  %39 = tail call i32 @Gia_ManUnivTfo_rec(ptr noundef %0, i32 noundef %37, ptr noundef %38, ptr noundef null)
  %40 = add nsw i32 %39, %.038.us39
  %indvars.iv.next52 = add nuw nsw i64 %indvars.iv51, 1
  %exitcond55.not = icmp eq i64 %indvars.iv.next52, %wide.trip.count64
  br i1 %exitcond55.not, label %._crit_edge.thread, label %.lr.ph.split.split.us, !llvm.loop !206

.lr.ph.split.split:                               ; preds = %.lr.ph.split, %.lr.ph.split.split
  %indvars.iv = phi i64 [ %indvars.iv.next, %.lr.ph.split.split ], [ 0, %.lr.ph.split ]
  %.038 = phi i32 [ %46, %.lr.ph.split.split ], [ 0, %.lr.ph.split ]
  %41 = getelementptr inbounds nuw i32, ptr %1, i64 %indvars.iv
  %42 = load i32, ptr %41, align 4, !tbaa !31
  %43 = load ptr, ptr %3, align 8, !tbaa !69
  %44 = load ptr, ptr %4, align 8, !tbaa !69
  %45 = tail call i32 @Gia_ManUnivTfo_rec(ptr noundef %0, i32 noundef %42, ptr noundef %43, ptr noundef %44)
  %46 = add nsw i32 %45, %.038
  %indvars.iv.next = add nuw nsw i64 %indvars.iv, 1
  %exitcond.not = icmp eq i64 %indvars.iv.next, %wide.trip.count64
  br i1 %exitcond.not, label %._crit_edge.thread, label %.lr.ph.split.split, !llvm.loop !206

._crit_edge:                                      ; preds = %.lr.ph.split.us.split, %.lr.ph.split.us.split.us, %25
  %.0.lcssa = phi i32 [ 0, %25 ], [ %30, %.lr.ph.split.us.split.us ], [ %35, %.lr.ph.split.us.split ]
  br i1 %.not, label %51, label %._crit_edge.thread

._crit_edge.thread:                               ; preds = %.lr.ph.split.split, %.lr.ph.split.split.us, %._crit_edge
  %.0.lcssa67 = phi i32 [ %.0.lcssa, %._crit_edge ], [ %40, %.lr.ph.split.split.us ], [ %46, %.lr.ph.split.split ]
  %47 = load ptr, ptr %3, align 8, !tbaa !69
  %48 = getelementptr i8, ptr %47, i64 4
  %.val35 = load i32, ptr %48, align 4, !tbaa !28
  %49 = getelementptr i8, ptr %47, i64 8
  %.val36 = load ptr, ptr %49, align 8, !tbaa !30
  %50 = sext i32 %.val35 to i64
  tail call void @qsort(ptr noundef %.val36, i64 noundef %50, i64 noundef 4, ptr noundef nonnull @Vec_IntSortCompare1) #32
  br label %51

51:                                               ; preds = %._crit_edge.thread, %._crit_edge
  %.0.lcssa68 = phi i32 [ %.0.lcssa67, %._crit_edge.thread ], [ %.0.lcssa, %._crit_edge ]
  br i1 %.not32, label %57, label %52

52:                                               ; preds = %51
  %53 = load ptr, ptr %4, align 8, !tbaa !69
  %54 = getelementptr i8, ptr %53, i64 4
  %.val = load i32, ptr %54, align 4, !tbaa !28
  %55 = getelementptr i8, ptr %53, i64 8
  %.val34 = load ptr, ptr %55, align 8, !tbaa !30
  %56 = sext i32 %.val to i64
  tail call void @qsort(ptr noundef %.val34, i64 noundef %56, i64 noundef 4, ptr noundef nonnull @Vec_IntSortCompare1) #32
  br label %57

57:                                               ; preds = %52, %51
  ret i32 %.0.lcssa68
}